; ModuleID = 'source-C-CXX/15/253.c'
source_filename = "source-C-CXX/15/253.c"
target datalayout = "e-m:e-p270:32:32-p271:32:32-p272:64:64-i64:64-f80:128-n8:16:32:64-S128"
target triple = "x86_64-pc-linux-gnu"

@.str = private unnamed_addr constant [6 x i8] c"%[^ ]\00", align 1
@.str.1 = private unnamed_addr constant [3 x i8] c"%d\00", align 1

; Function Attrs: nounwind sspstrong uwtable
define dso_local i32 @main() local_unnamed_addr #0 {
  %1 = alloca i32, align 4
  %2 = alloca [100 x i8], align 16
  %3 = alloca [100 x i8], align 16
  %4 = alloca [100 x i8], align 16
  %5 = bitcast i32* %1 to i8*
  call void @llvm.lifetime.start.p0i8(i64 4, i8* nonnull %5) #6
  %6 = getelementptr inbounds [100 x i8], [100 x i8]* %2, i64 0, i64 0
  call void @llvm.lifetime.start.p0i8(i64 100, i8* nonnull %6) #6
  %7 = getelementptr inbounds [100 x i8], [100 x i8]* %3, i64 0, i64 0
  call void @llvm.lifetime.start.p0i8(i64 100, i8* nonnull %7) #6
  %8 = getelementptr inbounds [100 x i8], [100 x i8]* %4, i64 0, i64 0
  call void @llvm.lifetime.start.p0i8(i64 100, i8* nonnull %8) #6
  %9 = call i32 (i8*, ...) bitcast (i32 (...)* @gets to i32 (i8*, ...)*)(i8* nonnull %6) #6
  %10 = call i64 @strlen(i8* noundef nonnull %6) #7
  %11 = trunc i64 %10 to i32
  %12 = shl i64 %10, 32
  %13 = ashr exact i64 %12, 32
  %14 = add i32 %11, 1
  %15 = call i32 @llvm.smin.i32(i32 %11, i32 1)
  %16 = sub i32 %14, %15
  %17 = zext i32 %16 to i64
  %18 = icmp ult i32 %16, 32
  br i1 %18, label %43, label %19

19:                                               ; preds = %0
  %20 = and i64 %17, 4294967264
  %21 = sub nsw i64 %13, %20
  br label %22

22:                                               ; preds = %22, %19
  %23 = phi i64 [ 0, %19 ], [ %39, %22 ]
  %24 = xor i64 %23, -1
  %25 = add i64 %13, %24
  %26 = getelementptr inbounds [100 x i8], [100 x i8]* %2, i64 0, i64 %25
  %27 = getelementptr inbounds i8, i8* %26, i64 -15
  %28 = bitcast i8* %27 to <16 x i8>*
  %29 = load <16 x i8>, <16 x i8>* %28, align 1, !tbaa !5
  %30 = shufflevector <16 x i8> %29, <16 x i8> poison, <16 x i32> <i32 15, i32 14, i32 13, i32 12, i32 11, i32 10, i32 9, i32 8, i32 7, i32 6, i32 5, i32 4, i32 3, i32 2, i32 1, i32 0>
  %31 = getelementptr inbounds i8, i8* %26, i64 -31
  %32 = bitcast i8* %31 to <16 x i8>*
  %33 = load <16 x i8>, <16 x i8>* %32, align 1, !tbaa !5
  %34 = shufflevector <16 x i8> %33, <16 x i8> poison, <16 x i32> <i32 15, i32 14, i32 13, i32 12, i32 11, i32 10, i32 9, i32 8, i32 7, i32 6, i32 5, i32 4, i32 3, i32 2, i32 1, i32 0>
  %35 = getelementptr inbounds [100 x i8], [100 x i8]* %3, i64 0, i64 %23
  %36 = bitcast i8* %35 to <16 x i8>*
  store <16 x i8> %30, <16 x i8>* %36, align 16, !tbaa !5
  %37 = getelementptr inbounds i8, i8* %35, i64 16
  %38 = bitcast i8* %37 to <16 x i8>*
  store <16 x i8> %34, <16 x i8>* %38, align 16, !tbaa !5
  %39 = add nuw i64 %23, 32
  %40 = icmp eq i64 %39, %20
  br i1 %40, label %41, label %22, !llvm.loop !8

41:                                               ; preds = %22
  %42 = icmp eq i64 %20, %17
  br i1 %42, label %55, label %43

43:                                               ; preds = %0, %41
  %44 = phi i64 [ 0, %0 ], [ %20, %41 ]
  %45 = phi i64 [ %13, %0 ], [ %21, %41 ]
  br label %46

46:                                               ; preds = %43, %46
  %47 = phi i64 [ %53, %46 ], [ %44, %43 ]
  %48 = phi i64 [ %49, %46 ], [ %45, %43 ]
  %49 = add nsw i64 %48, -1
  %50 = getelementptr inbounds [100 x i8], [100 x i8]* %2, i64 0, i64 %49
  %51 = load i8, i8* %50, align 1, !tbaa !5
  %52 = getelementptr inbounds [100 x i8], [100 x i8]* %3, i64 0, i64 %47
  store i8 %51, i8* %52, align 1, !tbaa !5
  %53 = add nuw nsw i64 %47, 1
  %54 = icmp eq i64 %53, %17
  br i1 %54, label %55, label %46, !llvm.loop !11

55:                                               ; preds = %46, %41
  %56 = phi i64 [ %21, %41 ], [ %49, %46 ]
  %57 = trunc i64 %56 to i32
  store i32 %57, i32* %1, align 4, !tbaa !13
  %58 = shl i64 %10, 32
  %59 = ashr exact i64 %58, 32
  %60 = getelementptr inbounds [100 x i8], [100 x i8]* %3, i64 0, i64 %59
  store i8 32, i8* %60, align 1, !tbaa !5
  %61 = call i32 (i8*, i8*, ...) @__isoc99_sscanf(i8* nonnull %7, i8* getelementptr inbounds ([6 x i8], [6 x i8]* @.str, i64 0, i64 0), i8* nonnull %8) #6
  %62 = call i32 @puts(i8* nonnull %8)
  %63 = call i32 (i8*, ...) @__isoc99_scanf(i8* getelementptr inbounds ([3 x i8], [3 x i8]* @.str.1, i64 0, i64 0), i32* nonnull %1)
  call void @llvm.lifetime.end.p0i8(i64 100, i8* nonnull %8) #6
  call void @llvm.lifetime.end.p0i8(i64 100, i8* nonnull %7) #6
  call void @llvm.lifetime.end.p0i8(i64 100, i8* nonnull %6) #6
  call void @llvm.lifetime.end.p0i8(i64 4, i8* nonnull %5) #6
  ret i32 0
}

; Function Attrs: argmemonly mustprogress nofree nosync nounwind willreturn
declare void @llvm.lifetime.start.p0i8(i64 immarg, i8* nocapture) #1

declare i32 @gets(...) local_unnamed_addr #2

; Function Attrs: argmemonly mustprogress nofree nounwind readonly willreturn
declare i64 @strlen(i8* nocapture) local_unnamed_addr #3

; Function Attrs: nofree nounwind
declare noundef i32 @__isoc99_sscanf(i8* nocapture noundef readonly, i8* nocapture noundef readonly, ...) local_unnamed_addr #4

; Function Attrs: nofree nounwind
declare noundef i32 @puts(i8* nocapture noundef readonly) local_unnamed_addr #4

; Function Attrs: nofree nounwind
declare noundef i32 @__isoc99_scanf(i8* nocapture noundef readonly, ...) local_unnamed_addr #4

; Function Attrs: argmemonly mustprogress nofree nosync nounwind willreturn
declare void @llvm.lifetime.end.p0i8(i64 immarg, i8* nocapture) #1

; Function Attrs: nofree nosync nounwind readnone speculatable willreturn
declare i32 @llvm.smin.i32(i32, i32) #5


!llvm.module.flags = !{!0, !1, !2, !3}
!llvm.ident = !{!4}

!0 = !{i32 1, !"wchar_size", i32 4}
!1 = !{i32 7, !"PIC Level", i32 2}
!2 = !{i32 7, !"PIE Level", i32 2}
!3 = !{i32 7, !"uwtable", i32 1}
!4 = !{!"clang version 13.0.0"}
!5 = !{!6, !6, i64 0}
!6 = !{!"omnipotent char", !7, i64 0}
!7 = !{!"Simple C/C++ TBAA"}
!8 = distinct !{!8, !9, !10}
!9 = !{!"llvm.loop.mustprogress"}
!10 = !{!"llvm.loop.isvectorized", i32 1}
!11 = distinct !{!11, !9, !12, !10}
!12 = !{!"llvm.loop.unroll.runtime.disable"}
!13 = !{!14, !14, i64 0}
!14 = !{!"int", !6, i64 0}
